target datalayout = "e-m:e-p270:32:32-p271:32:32-p272:64:64-i64:64-i128:128-f80:128-n8:16:32:64-S128"
target triple = "x86_64-pc-linux-gnu"

%"class.std::set" = type { %"class.std::_Rb_tree" }
%"class.std::_Rb_tree" = type { %"struct.std::_Rb_tree<g2o::HyperGraph::Vertex *, g2o::HyperGraph::Vertex *, std::_Identity<g2o::HyperGraph::Vertex *>, std::less<g2o::HyperGraph::Vertex *>>::_Rb_tree_impl" }
%"struct.std::_Rb_tree<g2o::HyperGraph::Vertex *, g2o::HyperGraph::Vertex *, std::_Identity<g2o::HyperGraph::Vertex *>, std::less<g2o::HyperGraph::Vertex *>>::_Rb_tree_impl" = type { [8 x i8], %"struct.std::_Rb_tree_header" }
%"struct.std::_Rb_tree_header" = type { %"struct.std::_Rb_tree_node_base", i64 }
%"struct.std::_Rb_tree_node_base" = type { i32, ptr, ptr, ptr }
%"struct.std::__detail::_Hash_node_base" = type { ptr }
%"struct.std::__detail::_Prime_rehash_policy" = type { float, i64 }
%"class.g2o::HyperGraph" = type { ptr, %"class.std::unordered_map.6", %"class.std::set.24" }
%"class.std::unordered_map.6" = type { %"class.std::_Hashtable.7" }
%"class.std::_Hashtable.7" = type { ptr, i64, %"struct.std::__detail::_Hash_node_base", i64, %"struct.std::__detail::_Prime_rehash_policy", ptr }
%"class.std::set.24" = type { %"class.std::_Rb_tree.25" }
%"class.std::_Rb_tree.25" = type { %"struct.std::_Rb_tree<g2o::HyperGraph::Edge *, g2o::HyperGraph::Edge *, std::_Identity<g2o::HyperGraph::Edge *>, std::less<g2o::HyperGraph::Edge *>>::_Rb_tree_impl" }
%"struct.std::_Rb_tree<g2o::HyperGraph::Edge *, g2o::HyperGraph::Edge *, std::_Identity<g2o::HyperGraph::Edge *>, std::less<g2o::HyperGraph::Edge *>>::_Rb_tree_impl" = type { [8 x i8], %"struct.std::_Rb_tree_header" }
%"struct.std::_Rb_tree_const_iterator" = type { ptr }
%"class.g2o::HyperGraph::Vertex" = type { %"struct.g2o::HyperGraph::HyperGraphElement", i32, %"class.std::set.24" }
%"struct.g2o::HyperGraph::HyperGraphElement" = type { ptr }
%"class.g2o::EstimatePropagatorCost" = type { ptr, ptr }
%"class.__gnu_cxx::__normal_iterator" = type { ptr }
%"class.g2o::SparseOptimizer" = type <{ %"struct.g2o::OptimizableGraph", ptr, i8, [7 x i8], %"class.std::vector.90", %"class.std::vector.90", %"class.std::vector.95", ptr, %"class.std::vector.100", i8, [7 x i8] }>
%"struct.g2o::OptimizableGraph" = type { %"class.g2o::HyperGraph", %"class.std::map", i64, %"class.std::vector", %"class.g2o::ParameterContainer", %"class.g2o::JacobianWorkspace" }
%"class.std::map" = type { %"class.std::_Rb_tree.30" }
%"class.std::_Rb_tree.30" = type { %"struct.std::_Rb_tree<std::__cxx11::basic_string<char>, std::pair<const std::__cxx11::basic_string<char>, std::__cxx11::basic_string<char>>, std::_Select1st<std::pair<const std::__cxx11::basic_string<char>, std::__cxx11::basic_string<char>>>, std::less<std::__cxx11::basic_string<char>>>::_Rb_tree_impl" }
%"struct.std::_Rb_tree<std::__cxx11::basic_string<char>, std::pair<const std::__cxx11::basic_string<char>, std::__cxx11::basic_string<char>>, std::_Select1st<std::pair<const std::__cxx11::basic_string<char>, std::__cxx11::basic_string<char>>>, std::less<std::__cxx11::basic_string<char>>>::_Rb_tree_impl" = type { [8 x i8], %"struct.std::_Rb_tree_header" }
%"class.std::vector" = type { %"struct.std::_Vector_base" }
%"struct.std::_Vector_base" = type { %"struct.std::_Vector_base<std::set<g2o::HyperGraphAction *>, std::allocator<std::set<g2o::HyperGraphAction *>>>::_Vector_impl" }
%"struct.std::_Vector_base<std::set<g2o::HyperGraphAction *>, std::allocator<std::set<g2o::HyperGraphAction *>>>::_Vector_impl" = type { %"struct.std::_Vector_base<std::set<g2o::HyperGraphAction *>, std::allocator<std::set<g2o::HyperGraphAction *>>>::_Vector_impl_data" }
%"struct.std::_Vector_base<std::set<g2o::HyperGraphAction *>, std::allocator<std::set<g2o::HyperGraphAction *>>>::_Vector_impl_data" = type { ptr, ptr, ptr }
%"class.g2o::ParameterContainer" = type <{ ptr, %"class.std::map.38", i8, [7 x i8] }>
%"class.std::map.38" = type { %"class.std::_Rb_tree.39" }
%"class.std::_Rb_tree.39" = type { %"struct.std::_Rb_tree<int, std::pair<const int, g2o::Parameter *>, std::_Select1st<std::pair<const int, g2o::Parameter *>>, std::less<int>>::_Rb_tree_impl" }
%"struct.std::_Rb_tree<int, std::pair<const int, g2o::Parameter *>, std::_Select1st<std::pair<const int, g2o::Parameter *>>, std::less<int>>::_Rb_tree_impl" = type { [8 x i8], %"struct.std::_Rb_tree_header" }
%"class.g2o::JacobianWorkspace" = type { %"class.std::vector.44", i32, i32 }
%"class.std::vector.44" = type { %"struct.std::_Vector_base.45" }
%"struct.std::_Vector_base.45" = type { %"struct.std::_Vector_base<Eigen::Matrix<double, -1, 1>, std::allocator<Eigen::Matrix<double, -1, 1>>>::_Vector_impl" }
%"struct.std::_Vector_base<Eigen::Matrix<double, -1, 1>, std::allocator<Eigen::Matrix<double, -1, 1>>>::_Vector_impl" = type { %"struct.std::_Vector_base<Eigen::Matrix<double, -1, 1>, std::allocator<Eigen::Matrix<double, -1, 1>>>::_Vector_impl_data" }
%"struct.std::_Vector_base<Eigen::Matrix<double, -1, 1>, std::allocator<Eigen::Matrix<double, -1, 1>>>::_Vector_impl_data" = type { ptr, ptr, ptr }
%"class.std::vector.90" = type { %"struct.std::_Vector_base.91" }
%"struct.std::_Vector_base.91" = type { %"struct.std::_Vector_base<g2o::OptimizableGraph::Vertex *, std::allocator<g2o::OptimizableGraph::Vertex *>>::_Vector_impl" }
%"struct.std::_Vector_base<g2o::OptimizableGraph::Vertex *, std::allocator<g2o::OptimizableGraph::Vertex *>>::_Vector_impl" = type { %"struct.std::_Vector_base<g2o::OptimizableGraph::Vertex *, std::allocator<g2o::OptimizableGraph::Vertex *>>::_Vector_impl_data" }
%"struct.std::_Vector_base<g2o::OptimizableGraph::Vertex *, std::allocator<g2o::OptimizableGraph::Vertex *>>::_Vector_impl_data" = type { ptr, ptr, ptr }
%"class.std::vector.95" = type { %"struct.std::_Vector_base.96" }
%"struct.std::_Vector_base.96" = type { %"struct.std::_Vector_base<g2o::OptimizableGraph::Edge *, std::allocator<g2o::OptimizableGraph::Edge *>>::_Vector_impl" }
%"struct.std::_Vector_base<g2o::OptimizableGraph::Edge *, std::allocator<g2o::OptimizableGraph::Edge *>>::_Vector_impl" = type { %"struct.std::_Vector_base<g2o::OptimizableGraph::Edge *, std::allocator<g2o::OptimizableGraph::Edge *>>::_Vector_impl_data" }
%"struct.std::_Vector_base<g2o::OptimizableGraph::Edge *, std::allocator<g2o::OptimizableGraph::Edge *>>::_Vector_impl_data" = type { ptr, ptr, ptr }
%"class.std::vector.100" = type { %"struct.std::_Vector_base.101" }
%"struct.std::_Vector_base.101" = type { %"struct.std::_Vector_base<g2o::G2OBatchStatistics, std::allocator<g2o::G2OBatchStatistics>>::_Vector_impl" }
%"struct.std::_Vector_base<g2o::G2OBatchStatistics, std::allocator<g2o::G2OBatchStatistics>>::_Vector_impl" = type { %"struct.std::_Vector_base<g2o::G2OBatchStatistics, std::allocator<g2o::G2OBatchStatistics>>::_Vector_impl_data" }
%"struct.std::_Vector_base<g2o::G2OBatchStatistics, std::allocator<g2o::G2OBatchStatistics>>::_Vector_impl_data" = type { ptr, ptr, ptr }
%"struct.std::_Rb_tree_node" = type { %"struct.std::_Rb_tree_node_base", %"struct.__gnu_cxx::__aligned_membuf" }
%"struct.__gnu_cxx::__aligned_membuf" = type { [8 x i8] }

@_ZTIN3g2o10HyperGraph6VertexE = external constant ptr
@_ZTIN3g2o16OptimizableGraph6VertexE = external constant ptr

; Function Attrs: mustprogress nounwind uwtable
define linkonce_odr noundef ptr @_ZNK9__gnu_cxx16__aligned_membufIPN3g2o10HyperGraph6VertexEE7_M_addrEv(ptr noundef nonnull align 8 dereferenceable(8) %0) #4 comdat align 2 {
  %2 = alloca ptr, align 8
  store ptr %0, ptr %2, align 8, !tbaa !186
  %3 = load ptr, ptr %2, align 8
  %4 = getelementptr inbounds nuw %"struct.__gnu_cxx::__aligned_membuf", ptr %3, i32 0, i32 0
  ret ptr %4
}

; Function Attrs: mustprogress nounwind uwtable
define linkonce_odr noundef ptr @_ZNK9__gnu_cxx16__aligned_membufIPN3g2o10HyperGraph6VertexEE6_M_ptrEv(ptr noundef nonnull align 8 dereferenceable(8) %0) #4 comdat align 2 {
  %2 = alloca ptr, align 8
  store ptr %0, ptr %2, align 8, !tbaa !186
  %3 = load ptr, ptr %2, align 8
  %4 = call noundef ptr @_ZNK9__gnu_cxx16__aligned_membufIPN3g2o10HyperGraph6VertexEE7_M_addrEv(ptr noundef nonnull align 8 dereferenceable(8) %3) #3
  ret ptr %4
}

; Function Attrs: mustprogress nounwind uwtable
define linkonce_odr void @_ZNSt23_Rb_tree_const_iteratorIPN3g2o10HyperGraph6VertexEEC2EPKSt18_Rb_tree_node_base(ptr noundef nonnull align 8 dereferenceable(8) %0, ptr noundef %1) unnamed_addr #4 comdat align 2 {
  %3 = alloca ptr, align 8
  %4 = alloca ptr, align 8
  store ptr %0, ptr %3, align 8, !tbaa !83
  store ptr %1, ptr %4, align 8, !tbaa !120
  %5 = load ptr, ptr %3, align 8
  %6 = getelementptr inbounds nuw %"struct.std::_Rb_tree_const_iterator", ptr %5, i32 0, i32 0
  %7 = load ptr, ptr %4, align 8, !tbaa !120
  store ptr %7, ptr %6, align 8, !tbaa !85
  ret void
}

; Function Attrs: mustprogress nounwind uwtable
define linkonce_odr noundef nonnull align 8 dereferenceable(8) ptr @_ZNK9__gnu_cxx17__normal_iteratorIPKPN3g2o16OptimizableGraph4EdgeESt6vectorIS4_SaIS4_EEE4baseEv(ptr noundef nonnull align 8 dereferenceable(8) %0) #4 comdat align 2 {
  %2 = alloca ptr, align 8
  store ptr %0, ptr %2, align 8, !tbaa !148
  %3 = load ptr, ptr %2, align 8
  %4 = getelementptr inbounds nuw %"class.__gnu_cxx::__normal_iterator", ptr %3, i32 0, i32 0
  ret ptr %4
}

; Function Attrs: mustprogress nounwind uwtable
define linkonce_odr void @_ZN9__gnu_cxx17__normal_iteratorIPKPN3g2o16OptimizableGraph4EdgeESt6vectorIS4_SaIS4_EEEC2ERKS6_(ptr noundef nonnull align 8 dereferenceable(8) %0, ptr noundef nonnull align 8 dereferenceable(8) %1) unnamed_addr #4 comdat align 2 {
  %3 = alloca ptr, align 8
  %4 = alloca ptr, align 8
  store ptr %0, ptr %3, align 8, !tbaa !148
  store ptr %1, ptr %4, align 8, !tbaa !385
  %5 = load ptr, ptr %3, align 8
  %6 = getelementptr inbounds nuw %"class.__gnu_cxx::__normal_iterator", ptr %5, i32 0, i32 0
  %7 = load ptr, ptr %4, align 8, !tbaa !385
  %8 = load ptr, ptr %7, align 8, !tbaa !150
  store ptr %8, ptr %6, align 8, !tbaa !387
  ret void
}

; Function Attrs: noinline noreturn nounwind uwtable
define linkonce_odr hidden void @__clang_call_terminate(ptr noundef %0) #11 comdat {
  %2 = call ptr @__cxa_begin_catch(ptr %0) #3
  call void @_ZSt9terminatev() #19
  unreachable
}

; Function Attrs: mustprogress nounwind uwtable
define linkonce_odr noundef ptr @_ZNKSt13_Rb_tree_nodeIPN3g2o10HyperGraph6VertexEE9_M_valptrEv(ptr noundef nonnull align 8 dereferenceable(40) %0) #4 comdat align 2 {
  %2 = alloca ptr, align 8
  store ptr %0, ptr %2, align 8, !tbaa !181
  %3 = load ptr, ptr %2, align 8
  %4 = getelementptr inbounds nuw %"struct.std::_Rb_tree_node", ptr %3, i32 0, i32 1
  %5 = call noundef ptr @_ZNK9__gnu_cxx16__aligned_membufIPN3g2o10HyperGraph6VertexEE6_M_ptrEv(ptr noundef nonnull align 8 dereferenceable(8) %4) #3
  ret ptr %5
}

; Function Attrs: mustprogress nounwind uwtable
define linkonce_odr ptr @_ZNKSt8_Rb_treeIPN3g2o10HyperGraph6VertexES3_St9_IdentityIS3_ESt4lessIS3_ESaIS3_EE5beginEv(ptr noundef nonnull align 8 dereferenceable(48) %0) #4 comdat align 2 {
  %2 = alloca %"struct.std::_Rb_tree_const_iterator", align 8
  %3 = alloca ptr, align 8
  store ptr %0, ptr %3, align 8, !tbaa !164
  %4 = load ptr, ptr %3, align 8
  %5 = getelementptr inbounds nuw %"class.std::_Rb_tree", ptr %4, i32 0, i32 0
  %6 = getelementptr inbounds i8, ptr %5, i64 8
  %7 = getelementptr inbounds nuw %"struct.std::_Rb_tree_header", ptr %6, i32 0, i32 0
  %8 = getelementptr inbounds nuw %"struct.std::_Rb_tree_node_base", ptr %7, i32 0, i32 2
  %9 = load ptr, ptr %8, align 8, !tbaa !178
  call void @_ZNSt23_Rb_tree_const_iteratorIPN3g2o10HyperGraph6VertexEEC2EPKSt18_Rb_tree_node_base(ptr noundef nonnull align 8 dereferenceable(8) %2, ptr noundef %9) #3
  %10 = getelementptr inbounds nuw %"struct.std::_Rb_tree_const_iterator", ptr %2, i32 0, i32 0
  %11 = load ptr, ptr %10, align 8
  ret ptr %11
}

; Function Attrs: inlinehint mustprogress nounwind uwtable
define linkonce_odr noundef zeroext i1 @_ZN9__gnu_cxxeqIPKPN3g2o16OptimizableGraph4EdgeESt6vectorIS4_SaIS4_EEEEbRKNS_17__normal_iteratorIT_T0_EESF_(ptr noundef nonnull align 8 dereferenceable(8) %0, ptr noundef nonnull align 8 dereferenceable(8) %1) #7 comdat {
  %3 = alloca ptr, align 8
  %4 = alloca ptr, align 8
  store ptr %0, ptr %3, align 8, !tbaa !148
  store ptr %1, ptr %4, align 8, !tbaa !148
  %5 = load ptr, ptr %3, align 8, !tbaa !148
  %6 = call noundef nonnull align 8 dereferenceable(8) ptr @_ZNK9__gnu_cxx17__normal_iteratorIPKPN3g2o16OptimizableGraph4EdgeESt6vectorIS4_SaIS4_EEE4baseEv(ptr noundef nonnull align 8 dereferenceable(8) %5) #3
  %7 = load ptr, ptr %6, align 8, !tbaa !150
  %8 = load ptr, ptr %4, align 8, !tbaa !148
  %9 = call noundef nonnull align 8 dereferenceable(8) ptr @_ZNK9__gnu_cxx17__normal_iteratorIPKPN3g2o16OptimizableGraph4EdgeESt6vectorIS4_SaIS4_EEE4baseEv(ptr noundef nonnull align 8 dereferenceable(8) %8) #3
  %10 = load ptr, ptr %9, align 8, !tbaa !150
  %11 = icmp eq ptr %7, %10
  ret i1 %11
}

; Function Attrs: mustprogress nounwind uwtable
define linkonce_odr ptr @_ZNKSt6vectorIPN3g2o16OptimizableGraph4EdgeESaIS3_EE3endEv(ptr noundef nonnull align 8 dereferenceable(24) %0) #4 comdat align 2 {
  %2 = alloca %"class.__gnu_cxx::__normal_iterator", align 8
  %3 = alloca ptr, align 8
  store ptr %0, ptr %3, align 8, !tbaa !152
  %4 = load ptr, ptr %3, align 8
  %5 = getelementptr inbounds nuw %"struct.std::_Vector_base.96", ptr %4, i32 0, i32 0
  %6 = getelementptr inbounds nuw %"struct.std::_Vector_base<g2o::OptimizableGraph::Edge *, std::allocator<g2o::OptimizableGraph::Edge *>>::_Vector_impl_data", ptr %5, i32 0, i32 1
  call void @_ZN9__gnu_cxx17__normal_iteratorIPKPN3g2o16OptimizableGraph4EdgeESt6vectorIS4_SaIS4_EEEC2ERKS6_(ptr noundef nonnull align 8 dereferenceable(8) %2, ptr noundef nonnull align 8 dereferenceable(8) %6) #3
  %7 = getelementptr inbounds nuw %"class.__gnu_cxx::__normal_iterator", ptr %2, i32 0, i32 0
  %8 = load ptr, ptr %7, align 8
  ret ptr %8
}

; Function Attrs: mustprogress nounwind uwtable
define linkonce_odr noundef nonnull align 8 dereferenceable(24) ptr @_ZNK3g2o15SparseOptimizer11activeEdgesEv(ptr noundef nonnull align 8 dereferenceable(409) %0) #4 comdat align 2 {
  %2 = alloca ptr, align 8
  store ptr %0, ptr %2, align 8, !tbaa !144
  %3 = load ptr, ptr %2, align 8
  %4 = getelementptr inbounds nuw %"class.g2o::SparseOptimizer", ptr %3, i32 0, i32 6
  ret ptr %4
}

; Function Attrs: mustprogress nounwind uwtable
define linkonce_odr noundef double @_ZNSt14numeric_limitsIdE3maxEv() #4 comdat align 2 {
  ret double 0x7FEFFFFFFFFFFFFF
}

; Function Attrs: mustprogress nounwind uwtable
define linkonce_odr noundef i32 @_ZNK3g2o10HyperGraph6Vertex2idEv(ptr noundef nonnull align 8 dereferenceable(64) %0) #4 comdat align 2 {
  %2 = alloca ptr, align 8
  store ptr %0, ptr %2, align 8, !tbaa !81
  %3 = load ptr, ptr %2, align 8
  %4 = getelementptr inbounds nuw %"class.g2o::HyperGraph::Vertex", ptr %3, i32 0, i32 1
  %5 = load i32, ptr %4, align 8, !tbaa !156
  ret i32 %5
}

; Function Attrs: mustprogress nounwind uwtable
define linkonce_odr noundef nonnull align 8 dereferenceable(8) ptr @_ZNKSt23_Rb_tree_const_iteratorIPN3g2o10HyperGraph6VertexEEdeEv(ptr noundef nonnull align 8 dereferenceable(8) %0) #4 comdat align 2 personality ptr @__gxx_personality_v0 {
  %2 = alloca ptr, align 8
  store ptr %0, ptr %2, align 8, !tbaa !83
  %3 = load ptr, ptr %2, align 8
  %4 = getelementptr inbounds nuw %"struct.std::_Rb_tree_const_iterator", ptr %3, i32 0, i32 0
  %5 = load ptr, ptr %4, align 8, !tbaa !85
  %6 = invoke noundef ptr @_ZNKSt13_Rb_tree_nodeIPN3g2o10HyperGraph6VertexEE9_M_valptrEv(ptr noundef nonnull align 8 dereferenceable(40) %5)
          to label %7 unwind label %8

7:                                                ; preds = %1
  ret ptr %6

8:                                                ; preds = %1
  %9 = landingpad { ptr, i32 }
          catch ptr null
  %10 = extractvalue { ptr, i32 } %9, 0
  call void @__clang_call_terminate(ptr %10) #19
  unreachable
}

; Function Attrs: mustprogress nounwind uwtable
define linkonce_odr ptr @_ZNKSt3setIPN3g2o10HyperGraph6VertexESt4lessIS3_ESaIS3_EE5beginEv(ptr noundef nonnull align 8 dereferenceable(48) %0) #4 comdat align 2 {
  %2 = alloca %"struct.std::_Rb_tree_const_iterator", align 8
  %3 = alloca ptr, align 8
  store ptr %0, ptr %3, align 8, !tbaa !16
  %4 = load ptr, ptr %3, align 8
  %5 = getelementptr inbounds nuw %"class.std::set", ptr %4, i32 0, i32 0
  %6 = call ptr @_ZNKSt8_Rb_treeIPN3g2o10HyperGraph6VertexES3_St9_IdentityIS3_ESt4lessIS3_ESaIS3_EE5beginEv(ptr noundef nonnull align 8 dereferenceable(48) %5) #3
  %7 = getelementptr inbounds nuw %"struct.std::_Rb_tree_const_iterator", ptr %2, i32 0, i32 0
  store ptr %6, ptr %7, align 8
  %8 = getelementptr inbounds nuw %"struct.std::_Rb_tree_const_iterator", ptr %2, i32 0, i32 0
  %9 = load ptr, ptr %8, align 8
  ret ptr %9
}

; Function Attrs: mustprogress uwtable
define noundef double @_ZNK3g2o30EstimatePropagatorCostOdometryclEPNS_16OptimizableGraph4EdgeERKSt3setIPNS_10HyperGraph6VertexESt4lessIS7_ESaIS7_EEPNS1_6VertexE(ptr noundef nonnull align 8 dereferenceable(16) %0, ptr noundef %1, ptr noundef nonnull align 8 dereferenceable(48) %2, ptr noundef %3) unnamed_addr #6 align 2 {
  %5 = alloca double, align 8
  %6 = alloca ptr, align 8
  %7 = alloca ptr, align 8
  %8 = alloca ptr, align 8
  %9 = alloca ptr, align 8
  %10 = alloca ptr, align 8
  %11 = alloca ptr, align 8
  %12 = alloca %"struct.std::_Rb_tree_const_iterator", align 8
  %13 = alloca ptr, align 8
  %14 = alloca i32, align 4
  %15 = alloca %"class.__gnu_cxx::__normal_iterator", align 8
  %16 = alloca %"class.__gnu_cxx::__normal_iterator", align 8
  store ptr %0, ptr %6, align 8, !tbaa !154
  store ptr %1, ptr %7, align 8, !tbaa !107
  store ptr %2, ptr %8, align 8, !tbaa !16
  store ptr %3, ptr %9, align 8, !tbaa !59
  %17 = load ptr, ptr %6, align 8
  call void @llvm.lifetime.start.p0(i64 8, ptr %10) #3
  %18 = load ptr, ptr %7, align 8, !tbaa !107
  store ptr %18, ptr %10, align 8, !tbaa !107
  call void @llvm.lifetime.start.p0(i64 8, ptr %11) #3
  call void @llvm.lifetime.start.p0(i64 8, ptr %12) #3
  %19 = load ptr, ptr %8, align 8, !tbaa !16
  %20 = call ptr @_ZNKSt3setIPN3g2o10HyperGraph6VertexESt4lessIS3_ESaIS3_EE5beginEv(ptr noundef nonnull align 8 dereferenceable(48) %19) #3
  %21 = getelementptr inbounds nuw %"struct.std::_Rb_tree_const_iterator", ptr %12, i32 0, i32 0
  store ptr %20, ptr %21, align 8
  %22 = call noundef nonnull align 8 dereferenceable(8) ptr @_ZNKSt23_Rb_tree_const_iteratorIPN3g2o10HyperGraph6VertexEEdeEv(ptr noundef nonnull align 8 dereferenceable(8) %12) #3
  %23 = load ptr, ptr %22, align 8, !tbaa !81
  %24 = icmp eq ptr %23, null
  br i1 %24, label %27, label %25

25:                                               ; preds = %4
  %26 = call ptr @__dynamic_cast(ptr %23, ptr @_ZTIN3g2o10HyperGraph6VertexE, ptr @_ZTIN3g2o16OptimizableGraph6VertexE, i64 0) #3
  br label %28

27:                                               ; preds = %4
  br label %28

28:                                               ; preds = %27, %25
  %29 = phi ptr [ %26, %25 ], [ null, %27 ]
  call void @llvm.lifetime.end.p0(i64 8, ptr %12) #3
  store ptr %29, ptr %11, align 8, !tbaa !59
  call void @llvm.lifetime.start.p0(i64 8, ptr %13) #3
  %30 = load ptr, ptr %9, align 8, !tbaa !59
  store ptr %30, ptr %13, align 8, !tbaa !59
  %31 = load ptr, ptr %11, align 8, !tbaa !59
  %32 = call noundef i32 @_ZNK3g2o10HyperGraph6Vertex2idEv(ptr noundef nonnull align 8 dereferenceable(64) %31)
  %33 = load ptr, ptr %13, align 8, !tbaa !59
  %34 = call noundef i32 @_ZNK3g2o10HyperGraph6Vertex2idEv(ptr noundef nonnull align 8 dereferenceable(64) %33)
  %35 = sub nsw i32 %32, %34
  %36 = call i32 @llvm.abs.i32(i32 %35, i1 true)
  %37 = icmp ne i32 %36, 1
  br i1 %37, label %38, label %40

38:                                               ; preds = %28
  %39 = call noundef double @_ZNSt14numeric_limitsIdE3maxEv() #3
  store double %39, ptr %5, align 8
  store i32 1, ptr %14, align 4
  br label %63

40:                                               ; preds = %28
  call void @llvm.lifetime.start.p0(i64 8, ptr %15) #3
  %41 = getelementptr inbounds nuw %"class.g2o::EstimatePropagatorCost", ptr %17, i32 0, i32 1
  %42 = load ptr, ptr %41, align 8, !tbaa !146
  %43 = load ptr, ptr %10, align 8, !tbaa !107
  %44 = call ptr @_ZNK3g2o15SparseOptimizer14findActiveEdgeEPKNS_16OptimizableGraph4EdgeE(ptr noundef nonnull align 8 dereferenceable(409) %42, ptr noundef %43)
  %45 = getelementptr inbounds nuw %"class.__gnu_cxx::__normal_iterator", ptr %15, i32 0, i32 0
  store ptr %44, ptr %45, align 8
  call void @llvm.lifetime.start.p0(i64 8, ptr %16) #3
  %46 = getelementptr inbounds nuw %"class.g2o::EstimatePropagatorCost", ptr %17, i32 0, i32 1
  %47 = load ptr, ptr %46, align 8, !tbaa !146
  %48 = call noundef nonnull align 8 dereferenceable(24) ptr @_ZNK3g2o15SparseOptimizer11activeEdgesEv(ptr noundef nonnull align 8 dereferenceable(409) %47)
  %49 = call ptr @_ZNKSt6vectorIPN3g2o16OptimizableGraph4EdgeESaIS3_EE3endEv(ptr noundef nonnull align 8 dereferenceable(24) %48) #3
  %50 = getelementptr inbounds nuw %"class.__gnu_cxx::__normal_iterator", ptr %16, i32 0, i32 0
  store ptr %49, ptr %50, align 8
  %51 = call noundef zeroext i1 @_ZN9__gnu_cxxeqIPKPN3g2o16OptimizableGraph4EdgeESt6vectorIS4_SaIS4_EEEEbRKNS_17__normal_iteratorIT_T0_EESF_(ptr noundef nonnull align 8 dereferenceable(8) %15, ptr noundef nonnull align 8 dereferenceable(8) %16) #3
  call void @llvm.lifetime.end.p0(i64 8, ptr %16) #3
  br i1 %51, label %52, label %54

52:                                               ; preds = %40
  %53 = call noundef double @_ZNSt14numeric_limitsIdE3maxEv() #3
  store double %53, ptr %5, align 8
  store i32 1, ptr %14, align 4
  br label %62

54:                                               ; preds = %40
  %55 = load ptr, ptr %10, align 8, !tbaa !107
  %56 = load ptr, ptr %8, align 8, !tbaa !16
  %57 = load ptr, ptr %13, align 8, !tbaa !59
  %58 = load ptr, ptr %55, align 8, !tbaa !103
  %59 = getelementptr inbounds ptr, ptr %58, i64 19
  %60 = load ptr, ptr %59, align 8
  %61 = call noundef double %60(ptr noundef nonnull align 8 dereferenceable(176) %55, ptr noundef nonnull align 8 dereferenceable(48) %56, ptr noundef %57)
  store double %61, ptr %5, align 8
  store i32 1, ptr %14, align 4
  br label %62

62:                                               ; preds = %54, %52
  call void @llvm.lifetime.end.p0(i64 8, ptr %15) #3
  br label %63

63:                                               ; preds = %62, %38
  call void @llvm.lifetime.end.p0(i64 8, ptr %13) #3
  call void @llvm.lifetime.end.p0(i64 8, ptr %11) #3
  call void @llvm.lifetime.end.p0(i64 8, ptr %10) #3
  %64 = load double, ptr %5, align 8
  ret double %64
}