; Function Attrs: mustprogress uwtable
define noundef double @_ZNK3g2o30EstimatePropagatorCostOdometryclEPNS_16OptimizableGraph4EdgeERKSt3setIPNS_10HyperGraph6VertexESt4lessIS7_ESaIS7_EEPNS1_6VertexE(ptr noundef nonnull readonly align 8 captures(none) dereferenceable(16) %0, ptr noundef %1, ptr noundef nonnull align 8 dereferenceable(48) %2, ptr noundef %3) unnamed_addr #5 align 2 personality ptr @__gxx_personality_v0 {
  %5 = getelementptr inbounds nuw i8, ptr %2, i64 24
  %6 = load ptr, ptr %5, align 8, !tbaa !13
  %7 = getelementptr inbounds nuw i8, ptr %6, i64 32
  %8 = load ptr, ptr %7, align 8, !tbaa !66, !nonnull !115, !noundef !115
  %9 = tail call ptr @__dynamic_cast(ptr nonnull %8, ptr nonnull @_ZTIN3g2o10HyperGraph6VertexE, ptr nonnull @_ZTIN3g2o16OptimizableGraph6VertexE, i64 0) #22
  %10 = getelementptr inbounds nuw i8, ptr %9, i64 8
  %11 = load i32, ptr %10, align 8, !tbaa !70
  %12 = getelementptr inbounds nuw i8, ptr %3, i64 8
  %13 = load i32, ptr %12, align 8, !tbaa !70
  %14 = sub nsw i32 %11, %13
  %15 = tail call i32 @llvm.abs.i32(i32 %14, i1 true)
  %.not = icmp eq i32 %15, 1
  br i1 %.not, label %16, label %29

16:                                               ; preds = %4
  %17 = getelementptr inbounds nuw i8, ptr %0, i64 8
  %18 = load ptr, ptr %17, align 8, !tbaa !120
  %19 = tail call ptr @_ZNK3g2o15SparseOptimizer14findActiveEdgeEPKNS_16OptimizableGraph4EdgeE(ptr noundef nonnull align 8 dereferenceable(409) %18, ptr noundef %1)
  %20 = load ptr, ptr %17, align 8, !tbaa !120
  %21 = getelementptr inbounds nuw i8, ptr %20, i64 360
  %22 = load ptr, ptr %21, align 8, !tbaa !123
  %23 = icmp eq ptr %19, %22
  br i1 %23, label %29, label %24

24:                                               ; preds = %16
  %25 = load ptr, ptr %1, align 8, !tbaa !92
  %26 = getelementptr inbounds nuw i8, ptr %25, i64 152
  %27 = load ptr, ptr %26, align 8
  %28 = tail call noundef double %27(ptr noundef nonnull align 8 dereferenceable(176) %1, ptr noundef nonnull align 8 dereferenceable(48) %2, ptr noundef nonnull %3)
  br label %29

29:                                               ; preds = %24, %16, %4
  %.0 = phi double [ 0x7FEFFFFFFFFFFFFF, %4 ], [ %28, %24 ], [ 0x7FEFFFFFFFFFFFFF, %16 ]
  ret double %.0
}